target datalayout = "e-m:e-p270:32:32-p271:32:32-p272:64:64-i64:64-i128:128-f80:128-n8:16:32:64-S128"
target triple = "x86_64-pc-linux-gnu"

%struct._value_string_ext = type { ptr, i32, i32, ptr, ptr }
%struct._per_sequence_t = type { ptr, i32, i32, ptr }
%struct._asn1_ctx_t = type { i32, i32, i8, ptr, ptr, ptr, ptr, ptr, %struct.anon, %struct.anon.2, %struct.anon.3, ptr }
%struct.anon = type { i32, i8, i8, i8, ptr, ptr, i32, i32, ptr, ptr, ptr, %union.anon }
%union.anon = type { %struct.anon.0 }
%struct.anon.0 = type { ptr }
%struct.anon.2 = type { ptr, ptr, ptr }
%struct.anon.3 = type { i32, i8, ptr, i32, i32, ptr, ptr, ptr, %union.anon.4 }
%union.anon.4 = type { %struct.anon.5 }
%struct.anon.5 = type { ptr }
%struct._packet_info = type { ptr, ptr, i32, i32, %struct.nstime_t, %struct.nstime_t, %struct.nstime_t, i8, ptr, ptr, ptr, ptr, %struct._address, %struct._address, %struct._address, %struct._address, %struct._address, %struct._address, i32, ptr, i8, [3 x i8], %struct.anon.7, i32, i32, i32, i32, ptr, i8, ptr, ptr, i16, i16, i32, i32, i16, i32, i32, ptr, ptr, ptr, i8, i8, i16, i16, i16, i32, i16, i16, ptr, ptr, ptr, ptr, ptr, i32, i32 }
%struct.nstime_t = type { i64, i32 }
%struct._address = type { i32, i32, ptr, ptr }
%struct.anon.7 = type { i8, [3 x i8] }
%struct.f1ap_tap_t = type { i32 }
%struct.f1ap_private_data_t = type { i32, i32, i32, i32, ptr, i32, i32, i32, i32, ptr }

@hf_f1ap_GNBDUStatusIndication_PDU = internal global i32 0, align 4
@ett_f1ap_GNBDUStatusIndication = internal global i32 0, align 4
@proto_f1ap = internal global i32 0, align 4
@top_tree = internal global ptr null, align 8
@mtype_names_ext = internal global %struct._value_string_ext { ptr @_try_val_to_str_ext_init, i32 0, i32 157, ptr @mtype_names, ptr @.str.7060 }, align 8
@.str.7158 = private unnamed_addr constant [8 x i8] c"Unknown\00", align 1
@.str.7159 = private unnamed_addr constant [6 x i8] c" (%s)\00", align 1
@GNBDUStatusIndication_sequence = internal constant [2 x %struct._per_sequence_t] [%struct._per_sequence_t { ptr @hf_f1ap_protocolIEs, i32 1, i32 0, ptr @dissect_f1ap_ProtocolIE_Container }, %struct._per_sequence_t zeroinitializer], align 16

; Function Attrs: null_pointer_is_valid sspstrong uwtable
define internal ptr @f1ap_get_private_data(ptr noundef %0) #0 {
  %2 = alloca ptr, align 8
  %3 = alloca ptr, align 8
  store ptr %0, ptr %2, align 8
  call void @llvm.lifetime.start.p0(i64 8, ptr %3) #5
  %4 = call ptr @wmem_file_scope()
  %5 = load ptr, ptr %2, align 8
  %6 = load i32, ptr @proto_f1ap, align 4
  %7 = call ptr @p_get_proto_data(ptr noundef %4, ptr noundef %5, i32 noundef %6, i32 noundef 0)
  store ptr %7, ptr %3, align 8
  %8 = load ptr, ptr %3, align 8
  %9 = icmp ne ptr %8, null
  br i1 %9, label %21, label %10

10:                                               ; preds = %1
  %11 = call ptr @wmem_file_scope()
  %12 = call noalias ptr @wmem_alloc0(ptr noundef %11, i64 noundef 48) #6
  store ptr %12, ptr %3, align 8
  %13 = load ptr, ptr %3, align 8
  %14 = getelementptr inbounds nuw %struct.f1ap_private_data_t, ptr %13, i32 0, i32 6
  store i32 -1, ptr %14, align 4
  %15 = load ptr, ptr %3, align 8
  %16 = getelementptr inbounds nuw %struct.f1ap_private_data_t, ptr %15, i32 0, i32 7
  store i32 1, ptr %16, align 8
  %17 = call ptr @wmem_file_scope()
  %18 = load ptr, ptr %2, align 8
  %19 = load i32, ptr @proto_f1ap, align 4
  %20 = load ptr, ptr %3, align 8
  call void @p_add_proto_data(ptr noundef %17, ptr noundef %18, i32 noundef %19, i32 noundef 0, ptr noundef %20)
  br label %21

21:                                               ; preds = %10, %1
  %22 = load ptr, ptr %3, align 8
  call void @llvm.lifetime.end.p0(i64 8, ptr %3) #5
  ret ptr %22
}

; Function Attrs: null_pointer_is_valid sspstrong uwtable
define internal void @set_stats_message_type(ptr noundef %0, i32 noundef %1) #0 {
  %3 = alloca ptr, align 8
  %4 = alloca i32, align 4
  %5 = alloca ptr, align 8
  store ptr %0, ptr %3, align 8
  store i32 %1, ptr %4, align 4
  call void @llvm.lifetime.start.p0(i64 8, ptr %5) #5
  %6 = load ptr, ptr %3, align 8
  %7 = call ptr @f1ap_get_private_data(ptr noundef %6)
  store ptr %7, ptr %5, align 8
  %8 = load i32, ptr %4, align 4
  %9 = load ptr, ptr %5, align 8
  %10 = getelementptr inbounds nuw %struct.f1ap_private_data_t, ptr %9, i32 0, i32 9
  %11 = load ptr, ptr %10, align 8
  %12 = getelementptr inbounds nuw %struct.f1ap_tap_t, ptr %11, i32 0, i32 0
  store i32 %8, ptr %12, align 4
  call void @llvm.lifetime.end.p0(i64 8, ptr %5) #5
  ret void
}

; Function Attrs: null_pointer_is_valid sspstrong uwtable
define internal void @set_message_label(ptr noundef %0, i32 noundef %1) #0 {
  %3 = alloca ptr, align 8
  %4 = alloca i32, align 4
  %5 = alloca ptr, align 8
  store ptr %0, ptr %3, align 8
  store i32 %1, ptr %4, align 4
  call void @llvm.lifetime.start.p0(i64 8, ptr %5) #5
  %6 = load i32, ptr %4, align 4
  %7 = call ptr @val_to_str_ext_const(i32 noundef %6, ptr noundef @mtype_names_ext, ptr noundef @.str.7158)
  store ptr %7, ptr %5, align 8
  %8 = load ptr, ptr %3, align 8
  %9 = getelementptr inbounds nuw %struct._asn1_ctx_t, ptr %8, i32 0, i32 3
  %10 = load ptr, ptr %9, align 8
  %11 = getelementptr inbounds nuw %struct._packet_info, ptr %10, i32 0, i32 1
  %12 = load ptr, ptr %11, align 8
  %13 = load ptr, ptr %5, align 8
  call void @col_append_sep_str(ptr noundef %12, i32 noundef 25, ptr noundef null, ptr noundef %13)
  %14 = load ptr, ptr @top_tree, align 8
  %15 = load ptr, ptr %5, align 8
  call void (ptr, ptr, ...) @proto_item_append_text(ptr noundef %14, ptr noundef @.str.7159, ptr noundef %15)
  call void @llvm.lifetime.end.p0(i64 8, ptr %5) #5
  ret void
}

; Function Attrs: null_pointer_is_valid sspstrong uwtable
define internal i32 @dissect_f1ap_GNBDUStatusIndication(ptr noundef %0, i32 noundef %1, ptr noundef %2, ptr noundef %3, i32 noundef %4) #0 {
  %6 = alloca ptr, align 8
  %7 = alloca i32, align 4
  %8 = alloca ptr, align 8
  %9 = alloca ptr, align 8
  %10 = alloca i32, align 4
  store ptr %0, ptr %6, align 8
  store i32 %1, ptr %7, align 4
  store ptr %2, ptr %8, align 8
  store ptr %3, ptr %9, align 8
  store i32 %4, ptr %10, align 4
  %11 = load ptr, ptr %8, align 8
  call void @set_message_label(ptr noundef %11, i32 noundef 42)
  %12 = load ptr, ptr %8, align 8
  %13 = getelementptr inbounds nuw %struct._asn1_ctx_t, ptr %12, i32 0, i32 3
  %14 = load ptr, ptr %13, align 8
  call void @set_stats_message_type(ptr noundef %14, i32 noundef 42)
  %15 = load ptr, ptr %6, align 8
  %16 = load i32, ptr %7, align 4
  %17 = load ptr, ptr %8, align 8
  %18 = load ptr, ptr %9, align 8
  %19 = load i32, ptr %10, align 4
  %20 = load i32, ptr @ett_f1ap_GNBDUStatusIndication, align 4
  %21 = call i32 @dissect_per_sequence(ptr noundef %15, i32 noundef %16, ptr noundef %17, ptr noundef %18, i32 noundef %19, i32 noundef %20, ptr noundef @GNBDUStatusIndication_sequence)
  store i32 %21, ptr %7, align 4
  %22 = load i32, ptr %7, align 4
  ret i32 %22
}

; Function Attrs: null_pointer_is_valid sspstrong uwtable
define internal i32 @dissect_GNBDUStatusIndication_PDU(ptr noundef %0, ptr noundef %1, ptr noundef %2, ptr noundef %3) #0 {
  %5 = alloca ptr, align 8
  %6 = alloca ptr, align 8
  %7 = alloca ptr, align 8
  %8 = alloca ptr, align 8
  %9 = alloca i32, align 4
  %10 = alloca %struct._asn1_ctx_t, align 8
  store ptr %0, ptr %5, align 8
  store ptr %1, ptr %6, align 8
  store ptr %2, ptr %7, align 8
  store ptr %3, ptr %8, align 8
  call void @llvm.lifetime.start.p0(i64 4, ptr %9) #5
  store i32 0, ptr %9, align 4
  call void @llvm.lifetime.start.p0(i64 208, ptr %10) #5
  %11 = load ptr, ptr %6, align 8
  call void @asn1_ctx_init(ptr noundef %10, i32 noundef 1, i1 noundef zeroext true, ptr noundef %11)
  %12 = load ptr, ptr %5, align 8
  %13 = load i32, ptr %9, align 4
  %14 = load ptr, ptr %7, align 8
  %15 = load i32, ptr @hf_f1ap_GNBDUStatusIndication_PDU, align 4
  %16 = call i32 @dissect_f1ap_GNBDUStatusIndication(ptr noundef %12, i32 noundef %13, ptr noundef %10, ptr noundef %14, i32 noundef %15)
  store i32 %16, ptr %9, align 4
  %17 = load i32, ptr %9, align 4
  %18 = add i32 %17, 7
  store i32 %18, ptr %9, align 4
  %19 = load i32, ptr %9, align 4
  %20 = ashr i32 %19, 3
  store i32 %20, ptr %9, align 4
  %21 = load i32, ptr %9, align 4
  call void @llvm.lifetime.end.p0(i64 208, ptr %10) #5
  call void @llvm.lifetime.end.p0(i64 4, ptr %9) #5
  ret i32 %21
}